target datalayout = "e-m:e-p270:32:32-p271:32:32-p272:64:64-i64:64-i128:128-f80:128-n8:16:32:64-S128"
target triple = "x86_64-pc-linux-gnu"

%struct._drda_pdu_info_t = type { i32, i32, i32, i32 }

@hf_drda_param_length = internal global i32 0, align 4
@hf_drda_null_ind = internal global i32 0, align 4
@hf_drda_sqludtgrp = internal global i32 0, align 4
@hf_drda_sqludtxtype = internal global i32 0, align 4
@hf_drda_sqludtschema = internal global i32 0, align 4
@hf_drda_sqludtname = internal global i32 0, align 4
@hf_drda_sqludtmodule = internal global i32 0, align 4
@hf_drda_rdbnam = internal global i32 0, align 4
@ett_drda_sqludtgrp = internal global i32 0, align 4

; Function Attrs: null_pointer_is_valid sspstrong uwtable
define internal i32 @dissect_fdoca_vcm(ptr noundef %0, i32 noundef %1, ptr noundef %2, i32 noundef %3, ptr noundef %4) #0 {
  %6 = alloca ptr, align 8
  %7 = alloca i32, align 4
  %8 = alloca ptr, align 8
  %9 = alloca i32, align 4
  %10 = alloca ptr, align 8
  %11 = alloca i32, align 4
  store ptr %0, ptr %6, align 8
  store i32 %1, ptr %7, align 4
  store ptr %2, ptr %8, align 8
  store i32 %3, ptr %9, align 4
  store ptr %4, ptr %10, align 8
  call void @llvm.lifetime.start.p0(i64 4, ptr %11) #9
  %12 = load ptr, ptr %6, align 8
  %13 = load i32, ptr @hf_drda_param_length, align 4
  %14 = load ptr, ptr %8, align 8
  %15 = load i32, ptr %9, align 4
  %16 = call ptr @proto_tree_add_item_ret_uint(ptr noundef %12, i32 noundef %13, ptr noundef %14, i32 noundef %15, i32 noundef 2, i32 noundef 0, ptr noundef %11)
  %17 = load i32, ptr %9, align 4
  %18 = add i32 %17, 2
  store i32 %18, ptr %9, align 4
  %19 = load ptr, ptr %6, align 8
  %20 = load i32, ptr %7, align 4
  %21 = load ptr, ptr %8, align 8
  %22 = load i32, ptr %9, align 4
  %23 = load i32, ptr %11, align 4
  %24 = load ptr, ptr %10, align 8
  %25 = getelementptr inbounds nuw %struct._drda_pdu_info_t, ptr %24, i32 0, i32 3
  %26 = load i32, ptr %25, align 4
  %27 = call ptr @proto_tree_add_item(ptr noundef %19, i32 noundef %20, ptr noundef %21, i32 noundef %22, i32 noundef %23, i32 noundef %26)
  %28 = load i32, ptr %9, align 4
  %29 = load i32, ptr %11, align 4
  %30 = add i32 %28, %29
  call void @llvm.lifetime.end.p0(i64 4, ptr %11) #9
  ret i32 %30
}

; Function Attrs: null_pointer_is_valid sspstrong uwtable
define internal i32 @dissect_fdoca_vcs(ptr noundef %0, i32 noundef %1, ptr noundef %2, i32 noundef %3, ptr noundef %4) #0 {
  %6 = alloca ptr, align 8
  %7 = alloca i32, align 4
  %8 = alloca ptr, align 8
  %9 = alloca i32, align 4
  %10 = alloca ptr, align 8
  %11 = alloca i32, align 4
  store ptr %0, ptr %6, align 8
  store i32 %1, ptr %7, align 4
  store ptr %2, ptr %8, align 8
  store i32 %3, ptr %9, align 4
  store ptr %4, ptr %10, align 8
  call void @llvm.lifetime.start.p0(i64 4, ptr %11) #9
  %12 = load ptr, ptr %6, align 8
  %13 = load i32, ptr @hf_drda_param_length, align 4
  %14 = load ptr, ptr %8, align 8
  %15 = load i32, ptr %9, align 4
  %16 = call ptr @proto_tree_add_item_ret_uint(ptr noundef %12, i32 noundef %13, ptr noundef %14, i32 noundef %15, i32 noundef 2, i32 noundef 0, ptr noundef %11)
  %17 = load i32, ptr %9, align 4
  %18 = add i32 %17, 2
  store i32 %18, ptr %9, align 4
  %19 = load ptr, ptr %6, align 8
  %20 = load i32, ptr %7, align 4
  %21 = load ptr, ptr %8, align 8
  %22 = load i32, ptr %9, align 4
  %23 = load i32, ptr %11, align 4
  %24 = load ptr, ptr %10, align 8
  %25 = getelementptr inbounds nuw %struct._drda_pdu_info_t, ptr %24, i32 0, i32 2
  %26 = load i32, ptr %25, align 4
  %27 = call ptr @proto_tree_add_item(ptr noundef %19, i32 noundef %20, ptr noundef %21, i32 noundef %22, i32 noundef %23, i32 noundef %26)
  %28 = load i32, ptr %9, align 4
  %29 = load i32, ptr %11, align 4
  %30 = add i32 %28, %29
  call void @llvm.lifetime.end.p0(i64 4, ptr %11) #9
  ret i32 %30
}

; Function Attrs: null_pointer_is_valid sspstrong uwtable
define internal i32 @dissect_fdoca_integer(ptr noundef %0, i32 noundef %1, ptr noundef %2, i32 noundef %3, i32 noundef %4, ptr noundef %5, ptr noundef %6) #0 {
  %8 = alloca ptr, align 8
  %9 = alloca i32, align 4
  %10 = alloca ptr, align 8
  %11 = alloca i32, align 4
  %12 = alloca i32, align 4
  %13 = alloca ptr, align 8
  %14 = alloca ptr, align 8
  %15 = alloca i32, align 4
  store ptr %0, ptr %8, align 8
  store i32 %1, ptr %9, align 4
  store ptr %2, ptr %10, align 8
  store i32 %3, ptr %11, align 4
  store i32 %4, ptr %12, align 4
  store ptr %5, ptr %13, align 8
  store ptr %6, ptr %14, align 8
  call void @llvm.lifetime.start.p0(i64 4, ptr %15) #9
  %16 = load ptr, ptr %13, align 8
  %17 = getelementptr inbounds nuw %struct._drda_pdu_info_t, ptr %16, i32 0, i32 1
  %18 = load i32, ptr %17, align 4
  switch i32 %18, label %21 [
    i32 1, label %19
    i32 2, label %19
    i32 4, label %19
    i32 3, label %20
    i32 5, label %20
  ]

19:                                               ; preds = %7, %7, %7
  store i32 0, ptr %15, align 4
  br label %22

20:                                               ; preds = %7, %7
  br label %21

21:                                               ; preds = %7, %20
  store i32 -2147483648, ptr %15, align 4
  br label %22

22:                                               ; preds = %21, %19
  %23 = load ptr, ptr %8, align 8
  %24 = load i32, ptr %9, align 4
  %25 = load ptr, ptr %10, align 8
  %26 = load i32, ptr %11, align 4
  %27 = load i32, ptr %12, align 4
  %28 = load i32, ptr %15, align 4
  %29 = load ptr, ptr %14, align 8
  %30 = call ptr @proto_tree_add_item_ret_int(ptr noundef %23, i32 noundef %24, ptr noundef %25, i32 noundef %26, i32 noundef %27, i32 noundef %28, ptr noundef %29)
  %31 = load i32, ptr %11, align 4
  %32 = load i32, ptr %12, align 4
  %33 = add i32 %31, %32
  call void @llvm.lifetime.end.p0(i64 4, ptr %15) #9
  ret i32 %33
}

; Function Attrs: null_pointer_is_valid sspstrong uwtable
define internal i32 @dissect_drda_sqludtgrp(ptr noundef %0, ptr noundef %1, ptr noundef %2, ptr noundef %3) #0 {
  %5 = alloca ptr, align 8
  %6 = alloca ptr, align 8
  %7 = alloca ptr, align 8
  %8 = alloca ptr, align 8
  %9 = alloca ptr, align 8
  %10 = alloca ptr, align 8
  %11 = alloca i32, align 4
  %12 = alloca ptr, align 8
  %13 = alloca i32, align 4
  store ptr %0, ptr %5, align 8
  store ptr %1, ptr %6, align 8
  store ptr %2, ptr %7, align 8
  store ptr %3, ptr %8, align 8
  call void @llvm.lifetime.start.p0(i64 8, ptr %9) #9
  call void @llvm.lifetime.start.p0(i64 8, ptr %10) #9
  call void @llvm.lifetime.start.p0(i64 4, ptr %11) #9
  store i32 0, ptr %11, align 4
  call void @llvm.lifetime.start.p0(i64 8, ptr %12) #9
  %14 = load ptr, ptr %8, align 8
  store ptr %14, ptr %12, align 8
  call void @llvm.lifetime.start.p0(i64 4, ptr %13) #9
  %15 = load ptr, ptr %7, align 8
  %16 = load i32, ptr @hf_drda_sqludtgrp, align 4
  %17 = load ptr, ptr %5, align 8
  %18 = load i32, ptr %11, align 4
  %19 = call ptr @proto_tree_add_item(ptr noundef %15, i32 noundef %16, ptr noundef %17, i32 noundef %18, i32 noundef 1, i32 noundef 0)
  store ptr %19, ptr %9, align 8
  %20 = load ptr, ptr %9, align 8
  %21 = load i32, ptr @ett_drda_sqludtgrp, align 4
  %22 = call ptr @proto_item_add_subtree(ptr noundef %20, i32 noundef %21)
  store ptr %22, ptr %10, align 8
  %23 = load ptr, ptr %10, align 8
  %24 = load i32, ptr @hf_drda_null_ind, align 4
  %25 = load ptr, ptr %5, align 8
  %26 = load i32, ptr %11, align 4
  %27 = call ptr @proto_tree_add_item_ret_uint(ptr noundef %23, i32 noundef %24, ptr noundef %25, i32 noundef %26, i32 noundef 1, i32 noundef 0, ptr noundef %13)
  %28 = load i32, ptr %11, align 4
  %29 = add i32 %28, 1
  store i32 %29, ptr %11, align 4
  %30 = load i32, ptr %13, align 4
  %31 = trunc i32 %30 to i8
  %32 = sext i8 %31 to i32
  %33 = icmp sge i32 %32, 0
  br i1 %33, label %34, label %95

34:                                               ; preds = %4
  %35 = load ptr, ptr %12, align 8
  %36 = getelementptr inbounds nuw %struct._drda_pdu_info_t, ptr %35, i32 0, i32 0
  %37 = load i32, ptr %36, align 4
  %38 = icmp ugt i32 %37, 6
  br i1 %38, label %39, label %64

39:                                               ; preds = %34
  %40 = load ptr, ptr %10, align 8
  %41 = load i32, ptr @hf_drda_sqludtxtype, align 4
  %42 = load ptr, ptr %5, align 8
  %43 = load i32, ptr %11, align 4
  %44 = load ptr, ptr %12, align 8
  %45 = call i32 @dissect_fdoca_integer(ptr noundef %40, i32 noundef %41, ptr noundef %42, i32 noundef %43, i32 noundef 4, ptr noundef %44, ptr noundef null)
  store i32 %45, ptr %11, align 4
  %46 = load ptr, ptr %10, align 8
  %47 = load i32, ptr @hf_drda_rdbnam, align 4
  %48 = load ptr, ptr %5, align 8
  %49 = load i32, ptr %11, align 4
  %50 = load ptr, ptr %12, align 8
  %51 = call i32 @dissect_fdoca_vcs(ptr noundef %46, i32 noundef %47, ptr noundef %48, i32 noundef %49, ptr noundef %50)
  store i32 %51, ptr %11, align 4
  %52 = load ptr, ptr %10, align 8
  %53 = load i32, ptr @hf_drda_sqludtschema, align 4
  %54 = load ptr, ptr %5, align 8
  %55 = load i32, ptr %11, align 4
  %56 = load ptr, ptr %12, align 8
  %57 = call i32 @dissect_fdoca_vcm(ptr noundef %52, i32 noundef %53, ptr noundef %54, i32 noundef %55, ptr noundef %56)
  store i32 %57, ptr %11, align 4
  %58 = load ptr, ptr %10, align 8
  %59 = load i32, ptr @hf_drda_sqludtschema, align 4
  %60 = load ptr, ptr %5, align 8
  %61 = load i32, ptr %11, align 4
  %62 = load ptr, ptr %12, align 8
  %63 = call i32 @dissect_fdoca_vcs(ptr noundef %58, i32 noundef %59, ptr noundef %60, i32 noundef %61, ptr noundef %62)
  store i32 %63, ptr %11, align 4
  br label %64

64:                                               ; preds = %39, %34
  %65 = load ptr, ptr %10, align 8
  %66 = load i32, ptr @hf_drda_sqludtname, align 4
  %67 = load ptr, ptr %5, align 8
  %68 = load i32, ptr %11, align 4
  %69 = load ptr, ptr %12, align 8
  %70 = call i32 @dissect_fdoca_vcm(ptr noundef %65, i32 noundef %66, ptr noundef %67, i32 noundef %68, ptr noundef %69)
  store i32 %70, ptr %11, align 4
  %71 = load ptr, ptr %10, align 8
  %72 = load i32, ptr @hf_drda_sqludtname, align 4
  %73 = load ptr, ptr %5, align 8
  %74 = load i32, ptr %11, align 4
  %75 = load ptr, ptr %12, align 8
  %76 = call i32 @dissect_fdoca_vcs(ptr noundef %71, i32 noundef %72, ptr noundef %73, i32 noundef %74, ptr noundef %75)
  store i32 %76, ptr %11, align 4
  %77 = load ptr, ptr %12, align 8
  %78 = getelementptr inbounds nuw %struct._drda_pdu_info_t, ptr %77, i32 0, i32 0
  %79 = load i32, ptr %78, align 4
  %80 = icmp uge i32 %79, 10
  br i1 %80, label %81, label %94

81:                                               ; preds = %64
  %82 = load ptr, ptr %10, align 8
  %83 = load i32, ptr @hf_drda_sqludtmodule, align 4
  %84 = load ptr, ptr %5, align 8
  %85 = load i32, ptr %11, align 4
  %86 = load ptr, ptr %12, align 8
  %87 = call i32 @dissect_fdoca_vcm(ptr noundef %82, i32 noundef %83, ptr noundef %84, i32 noundef %85, ptr noundef %86)
  store i32 %87, ptr %11, align 4
  %88 = load ptr, ptr %10, align 8
  %89 = load i32, ptr @hf_drda_sqludtmodule, align 4
  %90 = load ptr, ptr %5, align 8
  %91 = load i32, ptr %11, align 4
  %92 = load ptr, ptr %12, align 8
  %93 = call i32 @dissect_fdoca_vcs(ptr noundef %88, i32 noundef %89, ptr noundef %90, i32 noundef %91, ptr noundef %92)
  store i32 %93, ptr %11, align 4
  br label %94

94:                                               ; preds = %81, %64
  br label %95

95:                                               ; preds = %94, %4
  %96 = load ptr, ptr %9, align 8
  %97 = load ptr, ptr %5, align 8
  %98 = load i32, ptr %11, align 4
  call void @proto_item_set_end(ptr noundef %96, ptr noundef %97, i32 noundef %98)
  %99 = load i32, ptr %11, align 4
  call void @llvm.lifetime.end.p0(i64 4, ptr %13) #9
  call void @llvm.lifetime.end.p0(i64 8, ptr %12) #9
  call void @llvm.lifetime.end.p0(i64 4, ptr %11) #9
  call void @llvm.lifetime.end.p0(i64 8, ptr %10) #9
  call void @llvm.lifetime.end.p0(i64 8, ptr %9) #9
  ret i32 %99
}