; Function Attrs: null_pointer_is_valid sspstrong uwtable
define internal fastcc noundef i32 @dissect_drda_sqludtgrp(ptr noundef %0, ptr noundef %1, ptr noundef readonly captures(none) %2) unnamed_addr #0 {
  %4 = alloca i32, align 4
  %5 = alloca i32, align 4
  %6 = alloca i32, align 4
  %7 = alloca i32, align 4
  %8 = alloca i32, align 4
  %9 = alloca i32, align 4
  %10 = alloca i32, align 4
  %11 = alloca i32, align 4
  call void @llvm.lifetime.start.p0(i64 4, ptr nonnull %11) #8
  %12 = load i32, ptr @hf_drda_sqludtgrp, align 4
  %13 = tail call ptr @proto_tree_add_item(ptr noundef %1, i32 noundef %12, ptr noundef %0, i32 noundef 0, i32 noundef 1, i32 noundef 0)
  %14 = load i32, ptr @ett_drda_sqludtgrp, align 4
  %15 = tail call ptr @proto_item_add_subtree(ptr noundef %13, i32 noundef %14)
  %16 = load i32, ptr @hf_drda_null_ind, align 4
  %17 = call ptr @proto_tree_add_item_ret_uint(ptr noundef %15, i32 noundef %16, ptr noundef %0, i32 noundef 0, i32 noundef 1, i32 noundef 0, ptr noundef nonnull %11)
  %18 = load i32, ptr %11, align 4
  %sext.mask = and i32 %18, 128
  %19 = icmp eq i32 %sext.mask, 0
  br i1 %19, label %20, label %99

20:                                               ; preds = %3
  %21 = load i32, ptr %2, align 4
  %22 = icmp ugt i32 %21, 6
  br i1 %22, label %23, label %57

23:                                               ; preds = %20
  %24 = load i32, ptr @hf_drda_sqludtxtype, align 4
  %25 = getelementptr i8, ptr %2, i64 4
  %.val = load i32, ptr %25, align 4
  %switch.tableidx = add i32 %.val, -1
  %26 = icmp ult i32 %switch.tableidx, 4
  br i1 %26, label %switch.lookup, label %dissect_fdoca_integer.exit

switch.lookup:                                    ; preds = %23
  %27 = zext nneg i32 %switch.tableidx to i64
  %switch.gep = getelementptr inbounds nuw [4 x i32], ptr @switch.table.dissect_drda_sqludtgrp, i64 0, i64 %27
  %switch.load = load i32, ptr %switch.gep, align 4
  br label %dissect_fdoca_integer.exit

dissect_fdoca_integer.exit:                       ; preds = %23, %switch.lookup
  %.0.i = phi i32 [ %switch.load, %switch.lookup ], [ -2147483648, %23 ]
  %28 = call ptr @proto_tree_add_item_ret_int(ptr noundef %15, i32 noundef %24, ptr noundef %0, i32 noundef 1, i32 noundef 4, i32 noundef %.0.i, ptr noundef null)
  %29 = load i32, ptr @hf_drda_rdbnam, align 4
  call void @llvm.lifetime.start.p0(i64 4, ptr nonnull %10) #8
  %30 = load i32, ptr @hf_drda_param_length, align 4
  %31 = call ptr @proto_tree_add_item_ret_uint(ptr noundef %15, i32 noundef %30, ptr noundef %0, i32 noundef 5, i32 noundef 2, i32 noundef 0, ptr noundef nonnull %10)
  %32 = load i32, ptr %10, align 4
  %33 = getelementptr inbounds nuw i8, ptr %2, i64 8
  %34 = load i32, ptr %33, align 4
  %35 = call ptr @proto_tree_add_item(ptr noundef %15, i32 noundef %29, ptr noundef %0, i32 noundef 7, i32 noundef %32, i32 noundef %34)
  %36 = load i32, ptr %10, align 4
  %37 = add i32 %36, 7
  call void @llvm.lifetime.end.p0(i64 4, ptr nonnull %10) #8
  %38 = load i32, ptr @hf_drda_sqludtschema, align 4
  call void @llvm.lifetime.start.p0(i64 4, ptr nonnull %9) #8
  %39 = load i32, ptr @hf_drda_param_length, align 4
  %40 = call ptr @proto_tree_add_item_ret_uint(ptr noundef %15, i32 noundef %39, ptr noundef %0, i32 noundef %37, i32 noundef 2, i32 noundef 0, ptr noundef nonnull %9)
  %41 = add i32 %36, 9
  %42 = load i32, ptr %9, align 4
  %43 = getelementptr inbounds nuw i8, ptr %2, i64 12
  %44 = load i32, ptr %43, align 4
  %45 = call ptr @proto_tree_add_item(ptr noundef %15, i32 noundef %38, ptr noundef %0, i32 noundef %41, i32 noundef %42, i32 noundef %44)
  %46 = load i32, ptr %9, align 4
  %47 = add i32 %46, %41
  call void @llvm.lifetime.end.p0(i64 4, ptr nonnull %9) #8
  %48 = load i32, ptr @hf_drda_sqludtschema, align 4
  call void @llvm.lifetime.start.p0(i64 4, ptr nonnull %8) #8
  %49 = load i32, ptr @hf_drda_param_length, align 4
  %50 = call ptr @proto_tree_add_item_ret_uint(ptr noundef %15, i32 noundef %49, ptr noundef %0, i32 noundef %47, i32 noundef 2, i32 noundef 0, ptr noundef nonnull %8)
  %51 = add i32 %47, 2
  %52 = load i32, ptr %8, align 4
  %53 = load i32, ptr %33, align 4
  %54 = call ptr @proto_tree_add_item(ptr noundef %15, i32 noundef %48, ptr noundef %0, i32 noundef %51, i32 noundef %52, i32 noundef %53)
  %55 = load i32, ptr %8, align 4
  %56 = add i32 %55, %51
  call void @llvm.lifetime.end.p0(i64 4, ptr nonnull %8) #8
  br label %57

57:                                               ; preds = %dissect_fdoca_integer.exit, %20
  %.1 = phi i32 [ %56, %dissect_fdoca_integer.exit ], [ 1, %20 ]
  %58 = load i32, ptr @hf_drda_sqludtname, align 4
  call void @llvm.lifetime.start.p0(i64 4, ptr nonnull %7) #8
  %59 = load i32, ptr @hf_drda_param_length, align 4
  %60 = call ptr @proto_tree_add_item_ret_uint(ptr noundef %15, i32 noundef %59, ptr noundef %0, i32 noundef %.1, i32 noundef 2, i32 noundef 0, ptr noundef nonnull %7)
  %61 = add i32 %.1, 2
  %62 = load i32, ptr %7, align 4
  %63 = getelementptr inbounds nuw i8, ptr %2, i64 12
  %64 = load i32, ptr %63, align 4
  %65 = call ptr @proto_tree_add_item(ptr noundef %15, i32 noundef %58, ptr noundef %0, i32 noundef %61, i32 noundef %62, i32 noundef %64)
  %66 = load i32, ptr %7, align 4
  %67 = add i32 %66, %61
  call void @llvm.lifetime.end.p0(i64 4, ptr nonnull %7) #8
  %68 = load i32, ptr @hf_drda_sqludtname, align 4
  call void @llvm.lifetime.start.p0(i64 4, ptr nonnull %6) #8
  %69 = load i32, ptr @hf_drda_param_length, align 4
  %70 = call ptr @proto_tree_add_item_ret_uint(ptr noundef %15, i32 noundef %69, ptr noundef %0, i32 noundef %67, i32 noundef 2, i32 noundef 0, ptr noundef nonnull %6)
  %71 = add i32 %67, 2
  %72 = load i32, ptr %6, align 4
  %73 = getelementptr inbounds nuw i8, ptr %2, i64 8
  %74 = load i32, ptr %73, align 4
  %75 = call ptr @proto_tree_add_item(ptr noundef %15, i32 noundef %68, ptr noundef %0, i32 noundef %71, i32 noundef %72, i32 noundef %74)
  %76 = load i32, ptr %6, align 4
  %77 = add i32 %76, %71
  call void @llvm.lifetime.end.p0(i64 4, ptr nonnull %6) #8
  %78 = load i32, ptr %2, align 4
  %79 = icmp ugt i32 %78, 9
  br i1 %79, label %80, label %99

80:                                               ; preds = %57
  %81 = load i32, ptr @hf_drda_sqludtmodule, align 4
  call void @llvm.lifetime.start.p0(i64 4, ptr nonnull %5) #8
  %82 = load i32, ptr @hf_drda_param_length, align 4
  %83 = call ptr @proto_tree_add_item_ret_uint(ptr noundef %15, i32 noundef %82, ptr noundef %0, i32 noundef %77, i32 noundef 2, i32 noundef 0, ptr noundef nonnull %5)
  %84 = add i32 %77, 2
  %85 = load i32, ptr %5, align 4
  %86 = load i32, ptr %63, align 4
  %87 = call ptr @proto_tree_add_item(ptr noundef %15, i32 noundef %81, ptr noundef %0, i32 noundef %84, i32 noundef %85, i32 noundef %86)
  %88 = load i32, ptr %5, align 4
  %89 = add i32 %88, %84
  call void @llvm.lifetime.end.p0(i64 4, ptr nonnull %5) #8
  %90 = load i32, ptr @hf_drda_sqludtmodule, align 4
  call void @llvm.lifetime.start.p0(i64 4, ptr nonnull %4) #8
  %91 = load i32, ptr @hf_drda_param_length, align 4
  %92 = call ptr @proto_tree_add_item_ret_uint(ptr noundef %15, i32 noundef %91, ptr noundef %0, i32 noundef %89, i32 noundef 2, i32 noundef 0, ptr noundef nonnull %4)
  %93 = add i32 %89, 2
  %94 = load i32, ptr %4, align 4
  %95 = load i32, ptr %73, align 4
  %96 = call ptr @proto_tree_add_item(ptr noundef %15, i32 noundef %90, ptr noundef %0, i32 noundef %93, i32 noundef %94, i32 noundef %95)
  %97 = load i32, ptr %4, align 4
  %98 = add i32 %97, %93
  call void @llvm.lifetime.end.p0(i64 4, ptr nonnull %4) #8
  br label %99

99:                                               ; preds = %57, %80, %3
  %.0 = phi i32 [ %98, %80 ], [ %77, %57 ], [ 1, %3 ]
  call void @proto_item_set_end(ptr noundef %13, ptr noundef %0, i32 noundef %.0)
  call void @llvm.lifetime.end.p0(i64 4, ptr nonnull %11) #8
  ret i32 %.0
}